target datalayout = "e-m:e-p270:32:32-p271:32:32-p272:64:64-i64:64-i128:128-f80:128-n8:16:32:64-S128"
target triple = "x86_64-pc-linux-gnu"

@hf_opcua_nodeid_nsindex = internal global i32 0, align 4
@hf_opcua_nodeid_numeric = internal global i32 0, align 4
@hf_opcua_nodeid_string = internal global i32 0, align 4
@hf_opcua_nodeid_guid = internal global i32 0, align 4
@hf_opcua_nodeid_bytestring = internal global i32 0, align 4
@hf_opcua_expandednodeid_mask = internal global i32 0, align 4
@hf_opcua_ServerIndex = internal global i32 0, align 4
@parseExpandedNodeId.expandednodeid_mask = internal constant [4 x ptr] [ptr @hf_opcua_nodeid_encodingmask, ptr @hf_opcua_expandednodeid_mask_serverindex, ptr @hf_opcua_expandednodeid_mask_namespaceuri, ptr null], align 16
@ett_opcua_expandednodeid = internal global i32 0, align 4
@.str.216 = private unnamed_addr constant [19 x i8] c"%s: ExpandedNodeId\00", align 1
@ett_opcua_expandednodeid_encodingmask = internal global i32 0, align 4
@hf_opcua_NamespaceUri = external global i32, align 4

; Function Attrs: null_pointer_is_valid sspstrong uwtable
define hidden ptr @parseUInt32(ptr noundef %0, ptr noundef %1, ptr noundef %2, ptr noundef %3, i32 noundef %4) #0 {
  %6 = alloca ptr, align 8
  %7 = alloca ptr, align 8
  %8 = alloca ptr, align 8
  %9 = alloca ptr, align 8
  %10 = alloca i32, align 4
  %11 = alloca ptr, align 8
  store ptr %0, ptr %6, align 8
  store ptr %1, ptr %7, align 8
  store ptr %2, ptr %8, align 8
  store ptr %3, ptr %9, align 8
  store i32 %4, ptr %10, align 4
  call void @llvm.lifetime.start.p0(i64 8, ptr %11) #3
  %12 = load ptr, ptr %6, align 8
  %13 = load i32, ptr %10, align 4
  %14 = load ptr, ptr %7, align 8
  %15 = load ptr, ptr %9, align 8
  %16 = load i32, ptr %15, align 4
  %17 = call ptr @proto_tree_add_item(ptr noundef %12, i32 noundef %13, ptr noundef %14, i32 noundef %16, i32 noundef 4, i32 noundef -2147483648)
  store ptr %17, ptr %11, align 8
  %18 = load ptr, ptr %9, align 8
  %19 = load i32, ptr %18, align 4
  %20 = add i32 %19, 4
  store i32 %20, ptr %18, align 4
  %21 = load ptr, ptr %11, align 8
  call void @llvm.lifetime.end.p0(i64 8, ptr %11) #3
  ret ptr %21
}

; Function Attrs: null_pointer_is_valid sspstrong uwtable
define hidden ptr @parseGuid(ptr noundef %0, ptr noundef %1, ptr noundef %2, ptr noundef %3, i32 noundef %4) #0 {
  %6 = alloca ptr, align 8
  %7 = alloca ptr, align 8
  %8 = alloca ptr, align 8
  %9 = alloca ptr, align 8
  %10 = alloca i32, align 4
  %11 = alloca ptr, align 8
  store ptr %0, ptr %6, align 8
  store ptr %1, ptr %7, align 8
  store ptr %2, ptr %8, align 8
  store ptr %3, ptr %9, align 8
  store i32 %4, ptr %10, align 4
  call void @llvm.lifetime.start.p0(i64 8, ptr %11) #3
  %12 = load ptr, ptr %6, align 8
  %13 = load i32, ptr %10, align 4
  %14 = load ptr, ptr %7, align 8
  %15 = load ptr, ptr %9, align 8
  %16 = load i32, ptr %15, align 4
  %17 = call ptr @proto_tree_add_item(ptr noundef %12, i32 noundef %13, ptr noundef %14, i32 noundef %16, i32 noundef 16, i32 noundef -2147483648)
  store ptr %17, ptr %11, align 8
  %18 = load ptr, ptr %9, align 8
  %19 = load i32, ptr %18, align 4
  %20 = add i32 %19, 16
  store i32 %20, ptr %18, align 4
  %21 = load ptr, ptr %11, align 8
  call void @llvm.lifetime.end.p0(i64 8, ptr %11) #3
  ret ptr %21
}

; Function Attrs: null_pointer_is_valid sspstrong uwtable
define hidden void @parseExpandedNodeId(ptr noundef %0, ptr noundef %1, ptr noundef %2, ptr noundef %3, ptr noundef %4) #0 {
  %6 = alloca ptr, align 8
  %7 = alloca ptr, align 8
  %8 = alloca ptr, align 8
  %9 = alloca ptr, align 8
  %10 = alloca ptr, align 8
  %11 = alloca ptr, align 8
  %12 = alloca ptr, align 8
  %13 = alloca i32, align 4
  %14 = alloca i8, align 1
  store ptr %0, ptr %6, align 8
  store ptr %1, ptr %7, align 8
  store ptr %2, ptr %8, align 8
  store ptr %3, ptr %9, align 8
  store ptr %4, ptr %10, align 8
  call void @llvm.lifetime.start.p0(i64 8, ptr %11) #3
  call void @llvm.lifetime.start.p0(i64 8, ptr %12) #3
  %15 = load ptr, ptr %6, align 8
  %16 = load ptr, ptr %7, align 8
  %17 = load ptr, ptr %9, align 8
  %18 = load i32, ptr %17, align 4
  %19 = load i32, ptr @ett_opcua_expandednodeid, align 4
  %20 = load ptr, ptr %10, align 8
  %21 = call ptr (ptr, ptr, i32, i32, i32, ptr, ptr, ...) @proto_tree_add_subtree_format(ptr noundef %15, ptr noundef %16, i32 noundef %18, i32 noundef -1, i32 noundef %19, ptr noundef %11, ptr noundef @.str.216, ptr noundef %20)
  store ptr %21, ptr %12, align 8
  call void @llvm.lifetime.start.p0(i64 4, ptr %13) #3
  %22 = load ptr, ptr %9, align 8
  %23 = load i32, ptr %22, align 4
  store i32 %23, ptr %13, align 4
  call void @llvm.lifetime.start.p0(i64 1, ptr %14) #3
  %24 = load ptr, ptr %7, align 8
  %25 = load i32, ptr %13, align 4
  %26 = call zeroext i8 @tvb_get_uint8(ptr noundef %24, i32 noundef %25)
  store i8 %26, ptr %14, align 1
  %27 = load ptr, ptr %12, align 8
  %28 = load ptr, ptr %7, align 8
  %29 = load i32, ptr %13, align 4
  %30 = load i32, ptr @hf_opcua_expandednodeid_mask, align 4
  %31 = load i32, ptr @ett_opcua_expandednodeid_encodingmask, align 4
  %32 = call ptr @proto_tree_add_bitmask(ptr noundef %27, ptr noundef %28, i32 noundef %29, i32 noundef %30, i32 noundef %31, ptr noundef @parseExpandedNodeId.expandednodeid_mask, i32 noundef -2147483648)
  %33 = load i32, ptr %13, align 4
  %34 = add i32 %33, 1
  store i32 %34, ptr %13, align 4
  %35 = load i8, ptr %14, align 1
  %36 = zext i8 %35 to i32
  %37 = and i32 %36, 15
  switch i32 %37, label %115 [
    i32 0, label %38
    i32 1, label %46
    i32 2, label %61
    i32 3, label %76
    i32 4, label %89
    i32 5, label %102
  ]

38:                                               ; preds = %5
  %39 = load ptr, ptr %12, align 8
  %40 = load i32, ptr @hf_opcua_nodeid_numeric, align 4
  %41 = load ptr, ptr %7, align 8
  %42 = load i32, ptr %13, align 4
  %43 = call ptr @proto_tree_add_item(ptr noundef %39, i32 noundef %40, ptr noundef %41, i32 noundef %42, i32 noundef 1, i32 noundef -2147483648)
  %44 = load i32, ptr %13, align 4
  %45 = add i32 %44, 1
  store i32 %45, ptr %13, align 4
  br label %115

46:                                               ; preds = %5
  %47 = load ptr, ptr %12, align 8
  %48 = load i32, ptr @hf_opcua_nodeid_nsindex, align 4
  %49 = load ptr, ptr %7, align 8
  %50 = load i32, ptr %13, align 4
  %51 = call ptr @proto_tree_add_item(ptr noundef %47, i32 noundef %48, ptr noundef %49, i32 noundef %50, i32 noundef 1, i32 noundef -2147483648)
  %52 = load i32, ptr %13, align 4
  %53 = add i32 %52, 1
  store i32 %53, ptr %13, align 4
  %54 = load ptr, ptr %12, align 8
  %55 = load i32, ptr @hf_opcua_nodeid_numeric, align 4
  %56 = load ptr, ptr %7, align 8
  %57 = load i32, ptr %13, align 4
  %58 = call ptr @proto_tree_add_item(ptr noundef %54, i32 noundef %55, ptr noundef %56, i32 noundef %57, i32 noundef 2, i32 noundef -2147483648)
  %59 = load i32, ptr %13, align 4
  %60 = add i32 %59, 2
  store i32 %60, ptr %13, align 4
  br label %115

61:                                               ; preds = %5
  %62 = load ptr, ptr %12, align 8
  %63 = load i32, ptr @hf_opcua_nodeid_nsindex, align 4
  %64 = load ptr, ptr %7, align 8
  %65 = load i32, ptr %13, align 4
  %66 = call ptr @proto_tree_add_item(ptr noundef %62, i32 noundef %63, ptr noundef %64, i32 noundef %65, i32 noundef 2, i32 noundef -2147483648)
  %67 = load i32, ptr %13, align 4
  %68 = add i32 %67, 2
  store i32 %68, ptr %13, align 4
  %69 = load ptr, ptr %12, align 8
  %70 = load i32, ptr @hf_opcua_nodeid_numeric, align 4
  %71 = load ptr, ptr %7, align 8
  %72 = load i32, ptr %13, align 4
  %73 = call ptr @proto_tree_add_item(ptr noundef %69, i32 noundef %70, ptr noundef %71, i32 noundef %72, i32 noundef 4, i32 noundef -2147483648)
  %74 = load i32, ptr %13, align 4
  %75 = add i32 %74, 4
  store i32 %75, ptr %13, align 4
  br label %115

76:                                               ; preds = %5
  %77 = load ptr, ptr %12, align 8
  %78 = load i32, ptr @hf_opcua_nodeid_nsindex, align 4
  %79 = load ptr, ptr %7, align 8
  %80 = load i32, ptr %13, align 4
  %81 = call ptr @proto_tree_add_item(ptr noundef %77, i32 noundef %78, ptr noundef %79, i32 noundef %80, i32 noundef 2, i32 noundef -2147483648)
  %82 = load i32, ptr %13, align 4
  %83 = add i32 %82, 2
  store i32 %83, ptr %13, align 4
  %84 = load ptr, ptr %12, align 8
  %85 = load ptr, ptr %7, align 8
  %86 = load ptr, ptr %8, align 8
  %87 = load i32, ptr @hf_opcua_nodeid_string, align 4
  %88 = call ptr @parseString(ptr noundef %84, ptr noundef %85, ptr noundef %86, ptr noundef %13, i32 noundef %87)
  br label %115

89:                                               ; preds = %5
  %90 = load ptr, ptr %12, align 8
  %91 = load i32, ptr @hf_opcua_nodeid_nsindex, align 4
  %92 = load ptr, ptr %7, align 8
  %93 = load i32, ptr %13, align 4
  %94 = call ptr @proto_tree_add_item(ptr noundef %90, i32 noundef %91, ptr noundef %92, i32 noundef %93, i32 noundef 2, i32 noundef -2147483648)
  %95 = load i32, ptr %13, align 4
  %96 = add i32 %95, 2
  store i32 %96, ptr %13, align 4
  %97 = load ptr, ptr %12, align 8
  %98 = load ptr, ptr %7, align 8
  %99 = load ptr, ptr %8, align 8
  %100 = load i32, ptr @hf_opcua_nodeid_guid, align 4
  %101 = call ptr @parseGuid(ptr noundef %97, ptr noundef %98, ptr noundef %99, ptr noundef %13, i32 noundef %100)
  br label %115

102:                                              ; preds = %5
  %103 = load ptr, ptr %12, align 8
  %104 = load i32, ptr @hf_opcua_nodeid_nsindex, align 4
  %105 = load ptr, ptr %7, align 8
  %106 = load i32, ptr %13, align 4
  %107 = call ptr @proto_tree_add_item(ptr noundef %103, i32 noundef %104, ptr noundef %105, i32 noundef %106, i32 noundef 2, i32 noundef -2147483648)
  %108 = load i32, ptr %13, align 4
  %109 = add i32 %108, 2
  store i32 %109, ptr %13, align 4
  %110 = load ptr, ptr %12, align 8
  %111 = load ptr, ptr %7, align 8
  %112 = load ptr, ptr %8, align 8
  %113 = load i32, ptr @hf_opcua_nodeid_bytestring, align 4
  %114 = call ptr @parseByteString(ptr noundef %110, ptr noundef %111, ptr noundef %112, ptr noundef %13, i32 noundef %113)
  br label %115

115:                                              ; preds = %5, %102, %89, %76, %61, %46, %38
  %116 = load i8, ptr %14, align 1
  %117 = zext i8 %116 to i32
  %118 = and i32 %117, 128
  %119 = icmp ne i32 %118, 0
  br i1 %119, label %120, label %126

120:                                              ; preds = %115
  %121 = load ptr, ptr %12, align 8
  %122 = load ptr, ptr %7, align 8
  %123 = load ptr, ptr %8, align 8
  %124 = load i32, ptr @hf_opcua_NamespaceUri, align 4
  %125 = call ptr @parseString(ptr noundef %121, ptr noundef %122, ptr noundef %123, ptr noundef %13, i32 noundef %124)
  br label %126

126:                                              ; preds = %120, %115
  %127 = load i8, ptr %14, align 1
  %128 = zext i8 %127 to i32
  %129 = and i32 %128, 64
  %130 = icmp ne i32 %129, 0
  br i1 %130, label %131, label %137

131:                                              ; preds = %126
  %132 = load ptr, ptr %12, align 8
  %133 = load ptr, ptr %7, align 8
  %134 = load ptr, ptr %8, align 8
  %135 = load i32, ptr @hf_opcua_ServerIndex, align 4
  %136 = call ptr @parseUInt32(ptr noundef %132, ptr noundef %133, ptr noundef %134, ptr noundef %13, i32 noundef %135)
  br label %137

137:                                              ; preds = %131, %126
  %138 = load ptr, ptr %11, align 8
  %139 = load ptr, ptr %7, align 8
  %140 = load i32, ptr %13, align 4
  call void @proto_item_set_end(ptr noundef %138, ptr noundef %139, i32 noundef %140)
  %141 = load i32, ptr %13, align 4
  %142 = load ptr, ptr %9, align 8
  store i32 %141, ptr %142, align 4
  call void @llvm.lifetime.end.p0(i64 1, ptr %14) #3
  call void @llvm.lifetime.end.p0(i64 4, ptr %13) #3
  call void @llvm.lifetime.end.p0(i64 8, ptr %12) #3
  call void @llvm.lifetime.end.p0(i64 8, ptr %11) #3
  ret void
}