; Function Attrs: null_pointer_is_valid sspstrong uwtable
define hidden void @parseExpandedNodeId(ptr noundef %0, ptr noundef %1, ptr noundef readonly captures(none) %2, ptr noundef captures(none) %3, ptr noundef %4) #0 {
  %6 = alloca ptr, align 8
  %7 = alloca i32, align 4
  call void @llvm.lifetime.start.p0(i64 8, ptr nonnull %6) #4
  %8 = load i32, ptr %3, align 4
  %9 = load i32, ptr @ett_opcua_expandednodeid, align 4
  %10 = call ptr (ptr, ptr, i32, i32, i32, ptr, ptr, ...) @proto_tree_add_subtree_format(ptr noundef %0, ptr noundef %1, i32 noundef %8, i32 noundef -1, i32 noundef %9, ptr noundef nonnull %6, ptr noundef nonnull @.str.216, ptr noundef %4)
  call void @llvm.lifetime.start.p0(i64 4, ptr nonnull %7) #4
  %11 = load i32, ptr %3, align 4
  %12 = call zeroext i8 @tvb_get_uint8(ptr noundef %1, i32 noundef %11)
  %13 = load i32, ptr @hf_opcua_expandednodeid_mask, align 4
  %14 = load i32, ptr @ett_opcua_expandednodeid_encodingmask, align 4
  %15 = call ptr @proto_tree_add_bitmask(ptr noundef %10, ptr noundef %1, i32 noundef %11, i32 noundef %13, i32 noundef %14, ptr noundef nonnull @parseExpandedNodeId.expandednodeid_mask, i32 noundef -2147483648)
  %16 = add i32 %11, 1
  store i32 %16, ptr %7, align 4
  %17 = zext i8 %12 to i32
  %18 = and i32 %17, 15
  switch i32 %18, label %56 [
    i32 0, label %19
    i32 1, label %23
    i32 2, label %30
    i32 3, label %37
    i32 4, label %43
    i32 5, label %50
  ]

19:                                               ; preds = %5
  %20 = load i32, ptr @hf_opcua_nodeid_numeric, align 4
  %21 = call ptr @proto_tree_add_item(ptr noundef %10, i32 noundef %20, ptr noundef %1, i32 noundef %16, i32 noundef 1, i32 noundef -2147483648)
  %22 = add i32 %11, 2
  store i32 %22, ptr %7, align 4
  br label %56

23:                                               ; preds = %5
  %24 = load i32, ptr @hf_opcua_nodeid_nsindex, align 4
  %25 = call ptr @proto_tree_add_item(ptr noundef %10, i32 noundef %24, ptr noundef %1, i32 noundef %16, i32 noundef 1, i32 noundef -2147483648)
  %26 = add i32 %11, 2
  %27 = load i32, ptr @hf_opcua_nodeid_numeric, align 4
  %28 = call ptr @proto_tree_add_item(ptr noundef %10, i32 noundef %27, ptr noundef %1, i32 noundef %26, i32 noundef 2, i32 noundef -2147483648)
  %29 = add i32 %11, 4
  store i32 %29, ptr %7, align 4
  br label %56

30:                                               ; preds = %5
  %31 = load i32, ptr @hf_opcua_nodeid_nsindex, align 4
  %32 = call ptr @proto_tree_add_item(ptr noundef %10, i32 noundef %31, ptr noundef %1, i32 noundef %16, i32 noundef 2, i32 noundef -2147483648)
  %33 = add i32 %11, 3
  %34 = load i32, ptr @hf_opcua_nodeid_numeric, align 4
  %35 = call ptr @proto_tree_add_item(ptr noundef %10, i32 noundef %34, ptr noundef %1, i32 noundef %33, i32 noundef 4, i32 noundef -2147483648)
  %36 = add i32 %11, 7
  store i32 %36, ptr %7, align 4
  br label %56

37:                                               ; preds = %5
  %38 = load i32, ptr @hf_opcua_nodeid_nsindex, align 4
  %39 = call ptr @proto_tree_add_item(ptr noundef %10, i32 noundef %38, ptr noundef %1, i32 noundef %16, i32 noundef 2, i32 noundef -2147483648)
  %40 = add i32 %11, 3
  store i32 %40, ptr %7, align 4
  %41 = load i32, ptr @hf_opcua_nodeid_string, align 4
  %42 = call ptr @parseString(ptr noundef %10, ptr noundef %1, ptr noundef %2, ptr noundef nonnull %7, i32 noundef %41)
  br label %56

43:                                               ; preds = %5
  %44 = load i32, ptr @hf_opcua_nodeid_nsindex, align 4
  %45 = call ptr @proto_tree_add_item(ptr noundef %10, i32 noundef %44, ptr noundef %1, i32 noundef %16, i32 noundef 2, i32 noundef -2147483648)
  %46 = add i32 %11, 3
  %47 = load i32, ptr @hf_opcua_nodeid_guid, align 4
  %48 = call ptr @proto_tree_add_item(ptr noundef %10, i32 noundef %47, ptr noundef %1, i32 noundef %46, i32 noundef 16, i32 noundef -2147483648)
  %49 = add i32 %11, 19
  store i32 %49, ptr %7, align 4
  br label %56

50:                                               ; preds = %5
  %51 = load i32, ptr @hf_opcua_nodeid_nsindex, align 4
  %52 = call ptr @proto_tree_add_item(ptr noundef %10, i32 noundef %51, ptr noundef %1, i32 noundef %16, i32 noundef 2, i32 noundef -2147483648)
  %53 = add i32 %11, 3
  store i32 %53, ptr %7, align 4
  %54 = load i32, ptr @hf_opcua_nodeid_bytestring, align 4
  %55 = call ptr @parseByteString(ptr noundef %10, ptr noundef %1, ptr noundef %2, ptr noundef nonnull %7, i32 noundef %54)
  br label %56

56:                                               ; preds = %50, %43, %37, %30, %23, %19, %5
  %.not = icmp sgt i8 %12, -1
  br i1 %.not, label %60, label %57

57:                                               ; preds = %56
  %58 = load i32, ptr @hf_opcua_NamespaceUri, align 4
  %59 = call ptr @parseString(ptr noundef %10, ptr noundef %1, ptr noundef %2, ptr noundef nonnull %7, i32 noundef %58)
  br label %60

60:                                               ; preds = %57, %56
  %61 = and i32 %17, 64
  %.not43 = icmp eq i32 %61, 0
  %.pre = load i32, ptr %7, align 4
  br i1 %.not43, label %66, label %62

62:                                               ; preds = %60
  %63 = load i32, ptr @hf_opcua_ServerIndex, align 4
  %64 = call ptr @proto_tree_add_item(ptr noundef %10, i32 noundef %63, ptr noundef %1, i32 noundef %.pre, i32 noundef 4, i32 noundef -2147483648)
  %65 = add i32 %.pre, 4
  br label %66

66:                                               ; preds = %62, %60
  %67 = phi i32 [ %65, %62 ], [ %.pre, %60 ]
  %68 = load ptr, ptr %6, align 8
  call void @proto_item_set_end(ptr noundef %68, ptr noundef %1, i32 noundef %67)
  store i32 %67, ptr %3, align 4
  call void @llvm.lifetime.end.p0(i64 4, ptr nonnull %7) #4
  call void @llvm.lifetime.end.p0(i64 8, ptr nonnull %6) #4
  ret void
}